target datalayout = "e-m:e-p270:32:32-p271:32:32-p272:64:64-i64:64-i128:128-f80:128-n8:16:32:64-S128"
target triple = "x86_64-pc-linux-gnu"

%struct.WOLFSSL_BUFFER_INFO = type { ptr, i32 }
%struct.WOLFSSL = type <{ ptr, ptr, ptr, ptr, [48 x i8], [48 x i8], ptr, ptr, ptr, ptr, ptr, ptr, ptr, ptr, ptr, ptr, ptr, ptr, ptr, i32, [4 x i8], %struct.WOLFSSL_CIPHER, ptr, %struct.Ciphers, %struct.Ciphers, [8 x i8], %struct.Buffers, ptr, ptr, %struct.WOLFSSL_ALERT_HISTORY, %struct.WOLFSSL_ALERT, i32, i32, i32, i32, i32, i32, i32, i16, [2 x i8], i32, i8, %struct.RecordLayerHeader, %struct.MsgsReceived, %struct.ProtocolVersion, %struct.ProtocolVersion, %struct.CipherSpecs, [2 x i8], %struct.Keys, %struct.Options, ptr, i8, i8, i16, [10 x i16], i8, i8, i16, i16, [38 x i8], i32, i32, [4 x i8], ptr, i8, i8, [6 x i8], ptr, ptr, i16, i8, i8, i32, i8, [3 x i8], i32, %struct.OneTimeAuth, ptr }>
%struct.WOLFSSL_CIPHER = type { i8, i8, ptr }
%struct.Ciphers = type { ptr, ptr, ptr, ptr, i8, i8 }
%struct.Buffers = type { %struct.bufferStatic, %struct.bufferStatic, %struct.WOLFSSL_BUFFER_INFO, %struct.WOLFSSL_BUFFER_INFO, %struct.WOLFSSL_BUFFER_INFO, %struct.WOLFSSL_BUFFER_INFO, i32, i32, i8, i8, i8, i8, %struct.WOLFSSL_BUFFER_INFO, %struct.WOLFSSL_BUFFER_INFO, %struct.WOLFSSL_BUFFER_INFO, %struct.WOLFSSL_BUFFER_INFO, ptr, ptr, ptr, i8, i8, i32, i32, ptr, i32, [1 x ptr] }
%struct.bufferStatic = type { [5 x i8], ptr, i32, i32, i32, i8, i8 }
%struct.WOLFSSL_ALERT_HISTORY = type { %struct.WOLFSSL_ALERT, %struct.WOLFSSL_ALERT }
%struct.WOLFSSL_ALERT = type { i32, i32 }
%struct.RecordLayerHeader = type { i8, i8, i8, [2 x i8] }
%struct.MsgsReceived = type { i32 }
%struct.ProtocolVersion = type { i8, i8 }
%struct.CipherSpecs = type { i16, i16, i16, i16, i8, i8, i8, i8, i8, i8, i8, i8 }
%struct.Keys = type { [64 x i8], [64 x i8], [32 x i8], [32 x i8], [16 x i8], [16 x i8], [8 x i8], [12 x i8], [12 x i8], i32, i32, i32, i32, i32, i32, i8, i8, i8, i8 }
%struct.Options = type { i64, i64, i8, i8, i8, i8, i8, i8, i8, i8, i8, i8, i8, i8, i8, i8, i8, i8, i8, i8, i8, i8, i8, i16, i16, i16, i16, i16, i8 }
%struct.OneTimeAuth = type { ptr, i8 }

; Function Attrs: nounwind uwtable
define i32 @wolfSSL_SetMinEccKey_Sz(ptr noundef %0, i16 noundef signext %1) #0 {
  %3 = alloca i32, align 4
  %4 = alloca ptr, align 8
  %5 = alloca i16, align 2
  store ptr %0, ptr %4, align 8, !tbaa !61
  store i16 %1, ptr %5, align 2, !tbaa !94
  br label %6

6:                                                ; preds = %2
  br label %7

7:                                                ; preds = %6
  %8 = load ptr, ptr %4, align 8, !tbaa !61
  %9 = icmp eq ptr %8, null
  br i1 %9, label %19, label %10

10:                                               ; preds = %7
  %11 = load i16, ptr %5, align 2, !tbaa !94
  %12 = sext i16 %11 to i32
  %13 = icmp slt i32 %12, 0
  br i1 %13, label %19, label %14

14:                                               ; preds = %10
  %15 = load i16, ptr %5, align 2, !tbaa !94
  %16 = sext i16 %15 to i32
  %17 = srem i32 %16, 8
  %18 = icmp ne i32 %17, 0
  br i1 %18, label %19, label %22

19:                                               ; preds = %14, %10, %7
  br label %20

20:                                               ; preds = %19
  br label %21

21:                                               ; preds = %20
  store i32 -173, ptr %3, align 4
  br label %30

22:                                               ; preds = %14
  %23 = load i16, ptr %5, align 2, !tbaa !94
  %24 = sext i16 %23 to i32
  %25 = sdiv i32 %24, 8
  %26 = trunc i32 %25 to i16
  %27 = load ptr, ptr %4, align 8, !tbaa !61
  %28 = getelementptr inbounds nuw %struct.WOLFSSL, ptr %27, i32 0, i32 49
  %29 = getelementptr inbounds nuw %struct.Options, ptr %28, i32 0, i32 27
  store i16 %26, ptr %29, align 2, !tbaa !171
  store i32 1, ptr %3, align 4
  br label %30

30:                                               ; preds = %22, %21
  %31 = load i32, ptr %3, align 4
  ret i32 %31
}