; Function Attrs: mustprogress nofree norecurse nosync nounwind willreturn memory(argmem: write) uwtable
define range(i32 -173, 2) i32 @wolfSSL_SetMinEccKey_Sz(ptr noundef writeonly captures(address_is_null) %0, i16 noundef signext %1) local_unnamed_addr #5 {
  %3 = icmp ne ptr %0, null
  %4 = and i16 %1, -32761
  %5 = icmp eq i16 %4, 0
  %or.cond9 = and i1 %3, %5
  br i1 %or.cond9, label %6, label %9

6:                                                ; preds = %2
  %7 = lshr exact i16 %1, 3
  %8 = getelementptr inbounds nuw i8, ptr %0, i64 1062
  store i16 %7, ptr %8, align 2, !tbaa !149
  br label %9

9:                                                ; preds = %2, %6
  %.0 = phi i32 [ 1, %6 ], [ -173, %2 ]
  ret i32 %.0
}